target datalayout = "e-m:e-p270:32:32-p271:32:32-p272:64:64-i64:64-i128:128-f80:128-n8:16:32:64-S128"
target triple = "x86_64-unknown-linux-gnu"

%"class.llvh::StringRef" = type { ptr, i64 }
%"struct.hermes::vm::SizeFormatObj" = type { i64 }
%"class.llvh::format_object" = type { %"class.llvh::format_object_base", %"class.std::tuple.97" }
%"class.llvh::format_object_base" = type { ptr, ptr }
%"class.std::tuple.97" = type { %"struct.std::_Tuple_impl.98" }
%"struct.std::_Tuple_impl.98" = type { %"struct.std::_Head_base.99" }
%"struct.std::_Head_base.99" = type { double }
%"class.llvh::raw_ostream" = type <{ ptr, ptr, ptr, ptr, i32, [4 x i8] }>
%"struct.llvh::validate_format_parameters" = type { i8 }

@.str.53 = private unnamed_addr constant [10 x i8] c"%0.3f GiB\00", align 1
@.str.54 = private unnamed_addr constant [10 x i8] c"%0.3f MiB\00", align 1
@.str.55 = private unnamed_addr constant [10 x i8] c"%0.3f KiB\00", align 1
@.str.56 = private unnamed_addr constant [3 x i8] c" B\00", align 1
@_ZTVN4llvh13format_objectIJdEEE = linkonce_odr hidden unnamed_addr constant { [4 x ptr] } { [4 x ptr] [ptr null, ptr null, ptr @_ZN4llvh18format_object_base4homeEv, ptr @_ZNK4llvh13format_objectIJdEE7snprintEPcj] }, comdat, align 8
@_ZTVN4llvh18format_object_baseE = external unnamed_addr constant { [4 x ptr] }, align 8

; Function Attrs: mustprogress nounwind uwtable
define linkonce_odr void @_ZNSt10_Head_baseILm0EdLb0EEC2ERKd(ptr noundef nonnull align 8 dereferenceable(8) %this, ptr noundef nonnull align 8 dereferenceable(8) %__h) unnamed_addr #0 comdat align 2 {
entry:
  %this.addr = alloca ptr, align 8
  %__h.addr = alloca ptr, align 8
  store ptr %this, ptr %this.addr, align 8
  store ptr %__h, ptr %__h.addr, align 8
  %this1 = load ptr, ptr %this.addr, align 8
  %_M_head_impl = getelementptr inbounds %"struct.std::_Head_base.99", ptr %this1, i32 0, i32 0
  %0 = load ptr, ptr %__h.addr, align 8
  %1 = load double, ptr %0, align 8
  store double %1, ptr %_M_head_impl, align 8
  ret void
}

; Function Attrs: mustprogress nounwind uwtable
define linkonce_odr void @_ZNSt11_Tuple_implILm0EJdEEC2ERKd(ptr noundef nonnull align 8 dereferenceable(8) %this, ptr noundef nonnull align 8 dereferenceable(8) %__head) unnamed_addr #0 comdat align 2 {
entry:
  %this.addr = alloca ptr, align 8
  %__head.addr = alloca ptr, align 8
  store ptr %this, ptr %this.addr, align 8
  store ptr %__head, ptr %__head.addr, align 8
  %this1 = load ptr, ptr %this.addr, align 8
  %0 = load ptr, ptr %__head.addr, align 8
  call void @_ZNSt10_Head_baseILm0EdLb0EEC2ERKd(ptr noundef nonnull align 8 dereferenceable(8) %this1, ptr noundef nonnull align 8 dereferenceable(8) %0)
  ret void
}

; Function Attrs: mustprogress nounwind uwtable
define linkonce_odr hidden void @_ZN4llvh26validate_format_parametersIJdEEC2Ev(ptr noundef nonnull align 1 dereferenceable(1) %this) unnamed_addr #0 comdat align 2 {
entry:
  %this.addr = alloca ptr, align 8
  store ptr %this, ptr %this.addr, align 8
  ret void
}

; Function Attrs: mustprogress nounwind uwtable
define linkonce_odr void @_ZNSt5tupleIJdEEC2ILb1ETnNSt9enable_ifIXclsr4_TCCIXT_EEE29__is_implicitly_constructibleIRKdEEEbE4typeELb1EEES4_(ptr noundef nonnull align 8 dereferenceable(8) %this, ptr noundef nonnull align 8 dereferenceable(8) %__elements) unnamed_addr #0 comdat align 2 {
entry:
  %this.addr = alloca ptr, align 8
  %__elements.addr = alloca ptr, align 8
  store ptr %this, ptr %this.addr, align 8
  store ptr %__elements, ptr %__elements.addr, align 8
  %this1 = load ptr, ptr %this.addr, align 8
  %0 = load ptr, ptr %__elements.addr, align 8
  call void @_ZNSt11_Tuple_implILm0EJdEEC2ERKd(ptr noundef nonnull align 8 dereferenceable(8) %this1, ptr noundef nonnull align 8 dereferenceable(8) %0)
  ret void
}

; Function Attrs: mustprogress nounwind uwtable
define linkonce_odr hidden void @_ZN4llvh18format_object_baseC2EPKc(ptr noundef nonnull align 8 dereferenceable(16) %this, ptr noundef %fmt) unnamed_addr #0 comdat align 2 {
entry:
  %this.addr = alloca ptr, align 8
  %fmt.addr = alloca ptr, align 8
  store ptr %this, ptr %this.addr, align 8
  store ptr %fmt, ptr %fmt.addr, align 8
  %this1 = load ptr, ptr %this.addr, align 8
  store ptr getelementptr inbounds ({ [4 x ptr] }, ptr @_ZTVN4llvh18format_object_baseE, i32 0, i32 0, i32 2), ptr %this1, align 8
  %Fmt = getelementptr inbounds %"class.llvh::format_object_base", ptr %this1, i32 0, i32 1
  %0 = load ptr, ptr %fmt.addr, align 8
  store ptr %0, ptr %Fmt, align 8
  ret void
}

; Function Attrs: mustprogress nounwind uwtable
define linkonce_odr hidden noundef nonnull align 8 dereferenceable(36) ptr @_ZN4llvh11raw_ostreamlsENS_9StringRefE(ptr noundef nonnull align 8 dereferenceable(36) %this, ptr %Str.coerce0, i64 %Str.coerce1) #0 comdat align 2 {
entry:
  %this.addr.i11 = alloca ptr, align 8
  %this.addr.i9 = alloca ptr, align 8
  %this.addr.i = alloca ptr, align 8
  %retval = alloca ptr, align 8
  %Str = alloca %"class.llvh::StringRef", align 8
  %this.addr = alloca ptr, align 8
  %Size = alloca i64, align 8
  %0 = getelementptr inbounds { ptr, i64 }, ptr %Str, i32 0, i32 0
  store ptr %Str.coerce0, ptr %0, align 8
  %1 = getelementptr inbounds { ptr, i64 }, ptr %Str, i32 0, i32 1
  store i64 %Str.coerce1, ptr %1, align 8
  store ptr %this, ptr %this.addr, align 8
  %this1 = load ptr, ptr %this.addr, align 8
  store ptr %Str, ptr %this.addr.i, align 8
  %this1.i = load ptr, ptr %this.addr.i, align 8
  %Length.i = getelementptr inbounds %"class.llvh::StringRef", ptr %this1.i, i32 0, i32 1
  %2 = load i64, ptr %Length.i, align 8
  store i64 %2, ptr %Size, align 8
  %3 = load i64, ptr %Size, align 8
  %OutBufEnd = getelementptr inbounds %"class.llvh::raw_ostream", ptr %this1, i32 0, i32 2
  %4 = load ptr, ptr %OutBufEnd, align 8
  %OutBufCur = getelementptr inbounds %"class.llvh::raw_ostream", ptr %this1, i32 0, i32 3
  %5 = load ptr, ptr %OutBufCur, align 8
  %sub.ptr.lhs.cast = ptrtoint ptr %4 to i64
  %sub.ptr.rhs.cast = ptrtoint ptr %5 to i64
  %sub.ptr.sub = sub i64 %sub.ptr.lhs.cast, %sub.ptr.rhs.cast
  %cmp = icmp ugt i64 %3, %sub.ptr.sub
  br i1 %cmp, label %if.then, label %if.end

if.then:                                          ; preds = %entry
  store ptr %Str, ptr %this.addr.i11, align 8
  %this1.i12 = load ptr, ptr %this.addr.i11, align 8
  %6 = load ptr, ptr %this1.i12, align 8
  %7 = load i64, ptr %Size, align 8
  %call3 = call noundef nonnull align 8 dereferenceable(36) ptr @_ZN4llvh11raw_ostream5writeEPKcm(ptr noundef nonnull align 8 dereferenceable(36) %this1, ptr noundef %6, i64 noundef %7)
  store ptr %call3, ptr %retval, align 8
  br label %return

if.end:                                           ; preds = %entry
  %8 = load i64, ptr %Size, align 8
  %tobool = icmp ne i64 %8, 0
  br i1 %tobool, label %if.then4, label %if.end8

if.then4:                                         ; preds = %if.end
  %OutBufCur5 = getelementptr inbounds %"class.llvh::raw_ostream", ptr %this1, i32 0, i32 3
  %9 = load ptr, ptr %OutBufCur5, align 8
  store ptr %Str, ptr %this.addr.i9, align 8
  %this1.i10 = load ptr, ptr %this.addr.i9, align 8
  %10 = load ptr, ptr %this1.i10, align 8
  %11 = load i64, ptr %Size, align 8
  call void @llvm.memcpy.p0.p0.i64(ptr align 1 %9, ptr align 1 %10, i64 %11, i1 false)
  %12 = load i64, ptr %Size, align 8
  %OutBufCur7 = getelementptr inbounds %"class.llvh::raw_ostream", ptr %this1, i32 0, i32 3
  %13 = load ptr, ptr %OutBufCur7, align 8
  %add.ptr = getelementptr inbounds i8, ptr %13, i64 %12
  store ptr %add.ptr, ptr %OutBufCur7, align 8
  br label %if.end8

if.end8:                                          ; preds = %if.then4, %if.end
  store ptr %this1, ptr %retval, align 8
  br label %return

return:                                           ; preds = %if.end8, %if.then
  %14 = load ptr, ptr %retval, align 8
  ret ptr %14
}

; Function Attrs: mustprogress nounwind uwtable
define linkonce_odr hidden void @_ZN4llvh13format_objectIJdEEC2EPKcRKd(ptr noundef nonnull align 8 dereferenceable(24) %this, ptr noundef %fmt, ptr noundef nonnull align 8 dereferenceable(8) %vals) unnamed_addr #0 comdat align 2 {
entry:
  %this.addr = alloca ptr, align 8
  %fmt.addr = alloca ptr, align 8
  %vals.addr = alloca ptr, align 8
  %agg.tmp.ensured = alloca %"struct.llvh::validate_format_parameters", align 1
  store ptr %this, ptr %this.addr, align 8
  store ptr %fmt, ptr %fmt.addr, align 8
  store ptr %vals, ptr %vals.addr, align 8
  %this1 = load ptr, ptr %this.addr, align 8
  %0 = load ptr, ptr %fmt.addr, align 8
  call void @_ZN4llvh18format_object_baseC2EPKc(ptr noundef nonnull align 8 dereferenceable(16) %this1, ptr noundef %0)
  store ptr getelementptr inbounds ({ [4 x ptr] }, ptr @_ZTVN4llvh13format_objectIJdEEE, i32 0, i32 0, i32 2), ptr %this1, align 8
  %Vals = getelementptr inbounds %"class.llvh::format_object", ptr %this1, i32 0, i32 1
  %1 = load ptr, ptr %vals.addr, align 8
  call void @_ZNSt5tupleIJdEEC2ILb1ETnNSt9enable_ifIXclsr4_TCCIXT_EEE29__is_implicitly_constructibleIRKdEEEbE4typeELb1EEES4_(ptr noundef nonnull align 8 dereferenceable(8) %Vals, ptr noundef nonnull align 8 dereferenceable(8) %1) #14
  call void @_ZN4llvh26validate_format_parametersIJdEEC2Ev(ptr noundef nonnull align 1 dereferenceable(1) %agg.tmp.ensured)
  ret void
}

; Function Attrs: mustprogress nounwind uwtable
define linkonce_odr hidden noundef nonnull align 8 dereferenceable(36) ptr @_ZN4llvh11raw_ostreamlsEPKc(ptr noundef nonnull align 8 dereferenceable(36) %this, ptr noundef %Str) #0 comdat align 2 {
entry:
  %this.addr.i = alloca ptr, align 8
  %Str.addr.i = alloca ptr, align 8
  %this.addr = alloca ptr, align 8
  %Str.addr = alloca ptr, align 8
  %agg.tmp = alloca %"class.llvh::StringRef", align 8
  store ptr %this, ptr %this.addr, align 8
  store ptr %Str, ptr %Str.addr, align 8
  %this1 = load ptr, ptr %this.addr, align 8
  %0 = load ptr, ptr %Str.addr, align 8
  store ptr %agg.tmp, ptr %this.addr.i, align 8
  store ptr %0, ptr %Str.addr.i, align 8
  %this1.i = load ptr, ptr %this.addr.i, align 8
  %1 = load ptr, ptr %Str.addr.i, align 8
  store ptr %1, ptr %this1.i, align 8
  %Length.i = getelementptr inbounds %"class.llvh::StringRef", ptr %this1.i, i32 0, i32 1
  %2 = load ptr, ptr %Str.addr.i, align 8
  %tobool.i = icmp ne ptr %2, null
  br i1 %tobool.i, label %cond.true.i, label %cond.false.i

cond.true.i:                                      ; preds = %entry
  %3 = load ptr, ptr %Str.addr.i, align 8
  %call.i = call i64 @strlen(ptr noundef %3) #16
  br label %_ZN4llvh9StringRefC2EPKc.exit

cond.false.i:                                     ; preds = %entry
  br label %_ZN4llvh9StringRefC2EPKc.exit

_ZN4llvh9StringRefC2EPKc.exit:                    ; preds = %cond.false.i, %cond.true.i
  %cond.i = phi i64 [ %call.i, %cond.true.i ], [ 0, %cond.false.i ]
  store i64 %cond.i, ptr %Length.i, align 8
  %4 = getelementptr inbounds { ptr, i64 }, ptr %agg.tmp, i32 0, i32 0
  %5 = load ptr, ptr %4, align 8
  %6 = getelementptr inbounds { ptr, i64 }, ptr %agg.tmp, i32 0, i32 1
  %7 = load i64, ptr %6, align 8
  %call = call noundef nonnull align 8 dereferenceable(36) ptr @_ZN4llvh11raw_ostreamlsENS_9StringRefE(ptr noundef nonnull align 8 dereferenceable(36) %this1, ptr %5, i64 %7)
  ret ptr %call
}

; Function Attrs: mustprogress nounwind uwtable
define linkonce_odr hidden void @_ZN4llvh6formatIJdEEENS_13format_objectIJDpT_EEEPKcDpRKS2_(ptr noalias sret(%"class.llvh::format_object") align 8 %agg.result, ptr noundef %Fmt, ptr noundef nonnull align 8 dereferenceable(8) %Vals) #0 comdat {
entry:
  %result.ptr = alloca ptr, align 8
  %Fmt.addr = alloca ptr, align 8
  %Vals.addr = alloca ptr, align 8
  store ptr %agg.result, ptr %result.ptr, align 8
  store ptr %Fmt, ptr %Fmt.addr, align 8
  store ptr %Vals, ptr %Vals.addr, align 8
  %0 = load ptr, ptr %Fmt.addr, align 8
  %1 = load ptr, ptr %Vals.addr, align 8
  call void @_ZN4llvh13format_objectIJdEEC2EPKcRKd(ptr noundef nonnull align 8 dereferenceable(24) %agg.result, ptr noundef %0, ptr noundef nonnull align 8 dereferenceable(8) %1)
  ret void
}

; Function Attrs: mustprogress nounwind uwtable
define hidden noundef nonnull align 8 dereferenceable(36) ptr @_ZN6hermes2vmlsERN4llvh11raw_ostreamERKNS0_13SizeFormatObjE(ptr noundef nonnull align 8 dereferenceable(36) %os, ptr noundef nonnull align 8 dereferenceable(8) %sfo) #0 {
entry:
  %os.addr = alloca ptr, align 8
  %sfo.addr = alloca ptr, align 8
  %dblsize = alloca double, align 8
  %gbs = alloca double, align 8
  %ref.tmp = alloca %"class.llvh::format_object", align 8
  %mbs = alloca double, align 8
  %ref.tmp6 = alloca %"class.llvh::format_object", align 8
  %kbs = alloca double, align 8
  %ref.tmp13 = alloca %"class.llvh::format_object", align 8
  store ptr %os, ptr %os.addr, align 8
  store ptr %sfo, ptr %sfo.addr, align 8
  %0 = load ptr, ptr %sfo.addr, align 8
  %bytes = getelementptr inbounds %"struct.hermes::vm::SizeFormatObj", ptr %0, i32 0, i32 0
  %1 = load i64, ptr %bytes, align 8
  %conv = uitofp i64 %1 to double
  store double %conv, ptr %dblsize, align 8
  %2 = load ptr, ptr %sfo.addr, align 8
  %bytes1 = getelementptr inbounds %"struct.hermes::vm::SizeFormatObj", ptr %2, i32 0, i32 0
  %3 = load i64, ptr %bytes1, align 8
  %cmp = icmp uge i64 %3, 1073741824
  br i1 %cmp, label %if.then, label %if.else

if.then:                                          ; preds = %entry
  %4 = load double, ptr %dblsize, align 8
  %div = fdiv double %4, 0x41D0000000000000
  store double %div, ptr %gbs, align 8
  %5 = load ptr, ptr %os.addr, align 8
  call void @_ZN4llvh6formatIJdEEENS_13format_objectIJDpT_EEEPKcDpRKS2_(ptr sret(%"class.llvh::format_object") align 8 %ref.tmp, ptr noundef @.str.53, ptr noundef nonnull align 8 dereferenceable(8) %gbs)
  %call = call noundef nonnull align 8 dereferenceable(36) ptr @_ZN4llvh11raw_ostreamlsERKNS_18format_object_baseE(ptr noundef nonnull align 8 dereferenceable(36) %5, ptr noundef nonnull align 8 dereferenceable(16) %ref.tmp)
  br label %if.end20

if.else:                                          ; preds = %entry
  %6 = load ptr, ptr %sfo.addr, align 8
  %bytes2 = getelementptr inbounds %"struct.hermes::vm::SizeFormatObj", ptr %6, i32 0, i32 0
  %7 = load i64, ptr %bytes2, align 8
  %cmp3 = icmp uge i64 %7, 1048576
  br i1 %cmp3, label %if.then4, label %if.else8

if.then4:                                         ; preds = %if.else
  %8 = load double, ptr %dblsize, align 8
  %div5 = fdiv double %8, 0x4130000000000000
  store double %div5, ptr %mbs, align 8
  %9 = load ptr, ptr %os.addr, align 8
  call void @_ZN4llvh6formatIJdEEENS_13format_objectIJDpT_EEEPKcDpRKS2_(ptr sret(%"class.llvh::format_object") align 8 %ref.tmp6, ptr noundef @.str.54, ptr noundef nonnull align 8 dereferenceable(8) %mbs)
  %call7 = call noundef nonnull align 8 dereferenceable(36) ptr @_ZN4llvh11raw_ostreamlsERKNS_18format_object_baseE(ptr noundef nonnull align 8 dereferenceable(36) %9, ptr noundef nonnull align 8 dereferenceable(16) %ref.tmp6)
  br label %if.end19

if.else8:                                         ; preds = %if.else
  %10 = load ptr, ptr %sfo.addr, align 8
  %bytes9 = getelementptr inbounds %"struct.hermes::vm::SizeFormatObj", ptr %10, i32 0, i32 0
  %11 = load i64, ptr %bytes9, align 8
  %cmp10 = icmp uge i64 %11, 1024
  br i1 %cmp10, label %if.then11, label %if.else15

if.then11:                                        ; preds = %if.else8
  %12 = load double, ptr %dblsize, align 8
  %div12 = fdiv double %12, 1.024000e+03
  store double %div12, ptr %kbs, align 8
  %13 = load ptr, ptr %os.addr, align 8
  call void @_ZN4llvh6formatIJdEEENS_13format_objectIJDpT_EEEPKcDpRKS2_(ptr sret(%"class.llvh::format_object") align 8 %ref.tmp13, ptr noundef @.str.55, ptr noundef nonnull align 8 dereferenceable(8) %kbs)
  %call14 = call noundef nonnull align 8 dereferenceable(36) ptr @_ZN4llvh11raw_ostreamlsERKNS_18format_object_baseE(ptr noundef nonnull align 8 dereferenceable(36) %13, ptr noundef nonnull align 8 dereferenceable(16) %ref.tmp13)
  br label %if.end

if.else15:                                        ; preds = %if.else8
  %14 = load ptr, ptr %os.addr, align 8
  %15 = load ptr, ptr %sfo.addr, align 8
  %bytes16 = getelementptr inbounds %"struct.hermes::vm::SizeFormatObj", ptr %15, i32 0, i32 0
  %16 = load i64, ptr %bytes16, align 8
  %call17 = call noundef nonnull align 8 dereferenceable(36) ptr @_ZN4llvh11raw_ostreamlsEm(ptr noundef nonnull align 8 dereferenceable(36) %14, i64 noundef %16)
  %call18 = call noundef nonnull align 8 dereferenceable(36) ptr @_ZN4llvh11raw_ostreamlsEPKc(ptr noundef nonnull align 8 dereferenceable(36) %call17, ptr noundef @.str.56)
  br label %if.end

if.end:                                           ; preds = %if.else15, %if.then11
  br label %if.end19

if.end19:                                         ; preds = %if.end, %if.then4
  br label %if.end20

if.end20:                                         ; preds = %if.end19, %if.then
  %17 = load ptr, ptr %os.addr, align 8
  ret ptr %17
}