; Function Attrs: mustprogress nounwind uwtable
define hidden noundef nonnull align 8 dereferenceable(36) ptr @_ZN6hermes2vmlsERN4llvh11raw_ostreamERKNS0_13SizeFormatObjE(ptr noundef nonnull returned align 8 dereferenceable(36) %os, ptr nocapture noundef nonnull readonly align 8 dereferenceable(8) %sfo) local_unnamed_addr #0 {
entry:
  %ref.tmp = alloca %"class.llvh::format_object", align 8
  %ref.tmp6 = alloca %"class.llvh::format_object", align 8
  %ref.tmp13 = alloca %"class.llvh::format_object", align 8
  %0 = load i64, ptr %sfo, align 8
  %conv = uitofp i64 %0 to double
  %cmp = icmp ugt i64 %0, 1073741823
  br i1 %cmp, label %if.then, label %if.else

if.then:                                          ; preds = %entry
  %div = fmul double %conv, 0x3E10000000000000
  %Fmt.i.i.i = getelementptr inbounds i8, ptr %ref.tmp, i64 8
  store ptr @.str.53, ptr %Fmt.i.i.i, align 8, !alias.scope !40
  store ptr getelementptr inbounds ({ [4 x ptr] }, ptr @_ZTVN4llvh13format_objectIJdEEE, i64 0, i32 0, i64 2), ptr %ref.tmp, align 8, !alias.scope !40
  %Vals.i.i = getelementptr inbounds i8, ptr %ref.tmp, i64 16
  store double %div, ptr %Vals.i.i, align 8, !alias.scope !40
  %call = call noundef nonnull align 8 dereferenceable(36) ptr @_ZN4llvh11raw_ostreamlsERKNS_18format_object_baseE(ptr noundef nonnull align 8 dereferenceable(36) %os, ptr noundef nonnull align 8 dereferenceable(16) %ref.tmp) #27
  br label %if.end20

if.else:                                          ; preds = %entry
  %cmp3 = icmp ugt i64 %0, 1048575
  br i1 %cmp3, label %if.then4, label %if.else8

if.then4:                                         ; preds = %if.else
  %div5 = fmul double %conv, 0x3EB0000000000000
  %Fmt.i.i.i11 = getelementptr inbounds i8, ptr %ref.tmp6, i64 8
  store ptr @.str.54, ptr %Fmt.i.i.i11, align 8, !alias.scope !43
  store ptr getelementptr inbounds ({ [4 x ptr] }, ptr @_ZTVN4llvh13format_objectIJdEEE, i64 0, i32 0, i64 2), ptr %ref.tmp6, align 8, !alias.scope !43
  %Vals.i.i12 = getelementptr inbounds i8, ptr %ref.tmp6, i64 16
  store double %div5, ptr %Vals.i.i12, align 8, !alias.scope !43
  %call7 = call noundef nonnull align 8 dereferenceable(36) ptr @_ZN4llvh11raw_ostreamlsERKNS_18format_object_baseE(ptr noundef nonnull align 8 dereferenceable(36) %os, ptr noundef nonnull align 8 dereferenceable(16) %ref.tmp6) #27
  br label %if.end20

if.else8:                                         ; preds = %if.else
  %cmp10 = icmp ugt i64 %0, 1023
  br i1 %cmp10, label %if.then11, label %if.else15

if.then11:                                        ; preds = %if.else8
  %div12 = fmul double %conv, 0x3F50000000000000
  %Fmt.i.i.i13 = getelementptr inbounds i8, ptr %ref.tmp13, i64 8
  store ptr @.str.55, ptr %Fmt.i.i.i13, align 8, !alias.scope !46
  store ptr getelementptr inbounds ({ [4 x ptr] }, ptr @_ZTVN4llvh13format_objectIJdEEE, i64 0, i32 0, i64 2), ptr %ref.tmp13, align 8, !alias.scope !46
  %Vals.i.i14 = getelementptr inbounds i8, ptr %ref.tmp13, i64 16
  store double %div12, ptr %Vals.i.i14, align 8, !alias.scope !46
  %call14 = call noundef nonnull align 8 dereferenceable(36) ptr @_ZN4llvh11raw_ostreamlsERKNS_18format_object_baseE(ptr noundef nonnull align 8 dereferenceable(36) %os, ptr noundef nonnull align 8 dereferenceable(16) %ref.tmp13) #27
  br label %if.end20

if.else15:                                        ; preds = %if.else8
  %call17 = tail call noundef nonnull align 8 dereferenceable(36) ptr @_ZN4llvh11raw_ostreamlsEm(ptr noundef nonnull align 8 dereferenceable(36) %os, i64 noundef %0) #27
  %OutBufEnd.i5.i = getelementptr inbounds i8, ptr %call17, i64 16
  %1 = load ptr, ptr %OutBufEnd.i5.i, align 8
  %OutBufCur.i6.i = getelementptr inbounds i8, ptr %call17, i64 24
  %2 = load ptr, ptr %OutBufCur.i6.i, align 8
  %sub.ptr.lhs.cast.i7.i = ptrtoint ptr %1 to i64
  %sub.ptr.rhs.cast.i8.i = ptrtoint ptr %2 to i64
  %sub.ptr.sub.i9.i = sub i64 %sub.ptr.lhs.cast.i7.i, %sub.ptr.rhs.cast.i8.i
  %cmp.i.i = icmp ult i64 %sub.ptr.sub.i9.i, 2
  br i1 %cmp.i.i, label %if.then.i.i, label %if.then4.i.i

if.then.i.i:                                      ; preds = %if.else15
  %call3.i.i = tail call noundef nonnull align 8 dereferenceable(36) ptr @_ZN4llvh11raw_ostream5writeEPKcm(ptr noundef nonnull align 8 dereferenceable(36) %call17, ptr noundef nonnull @.str.56, i64 noundef 2) #27
  br label %if.end20

if.then4.i.i:                                     ; preds = %if.else15
  store i16 16928, ptr %2, align 1
  %3 = load ptr, ptr %OutBufCur.i6.i, align 8
  %add.ptr.i.i = getelementptr inbounds i8, ptr %3, i64 2
  store ptr %add.ptr.i.i, ptr %OutBufCur.i6.i, align 8
  br label %if.end20

if.end20:                                         ; preds = %if.then4.i.i, %if.then.i.i, %if.then4, %if.then11, %if.then
  ret ptr %os
}